target datalayout = "e-m:e-p270:32:32-p271:32:32-p272:64:64-i64:64-i128:128-f80:128-n8:16:32:64-S128"
target triple = "x86_64-pc-linux-gnu"

%"class.llvm::StringRef" = type { ptr, i64 }

; Function Attrs: mustprogress nounwind uwtable
define dso_local noundef zeroext i1 @_ZNK5clang13OpenCLOptions29isSupportedCoreOrOptionalCoreEN4llvm9StringRefERKNS_11LangOptionsE(ptr noundef nonnull align 8 dereferenceable(24) %0, ptr %1, i64 %2, ptr noundef nonnull align 8 dereferenceable(841) %3) #0 align 2 {
  %5 = alloca %"class.llvm::StringRef", align 8
  %6 = alloca ptr, align 8
  %7 = alloca ptr, align 8
  %8 = alloca %"class.llvm::StringRef", align 8
  %9 = alloca %"class.llvm::StringRef", align 8
  %10 = getelementptr inbounds nuw { ptr, i64 }, ptr %5, i32 0, i32 0
  store ptr %1, ptr %10, align 8
  %11 = getelementptr inbounds nuw { ptr, i64 }, ptr %5, i32 0, i32 1
  store i64 %2, ptr %11, align 8
  store ptr %0, ptr %6, align 8
  store ptr %3, ptr %7, align 8
  %12 = load ptr, ptr %6, align 8
  call void @llvm.memcpy.p0.p0.i64(ptr align 8 %8, ptr align 8 %5, i64 16, i1 false)
  %13 = load ptr, ptr %7, align 8
  %14 = getelementptr inbounds nuw { ptr, i64 }, ptr %8, i32 0, i32 0
  %15 = load ptr, ptr %14, align 8
  %16 = getelementptr inbounds nuw { ptr, i64 }, ptr %8, i32 0, i32 1
  %17 = load i64, ptr %16, align 8
  %18 = call noundef zeroext i1 @_ZNK5clang13OpenCLOptions15isSupportedCoreEN4llvm9StringRefERKNS_11LangOptionsE(ptr noundef nonnull align 8 dereferenceable(24) %12, ptr %15, i64 %17, ptr noundef nonnull align 8 dereferenceable(841) %13)
  br i1 %18, label %26, label %19

19:                                               ; preds = %4
  call void @llvm.memcpy.p0.p0.i64(ptr align 8 %9, ptr align 8 %5, i64 16, i1 false)
  %20 = load ptr, ptr %7, align 8
  %21 = getelementptr inbounds nuw { ptr, i64 }, ptr %9, i32 0, i32 0
  %22 = load ptr, ptr %21, align 8
  %23 = getelementptr inbounds nuw { ptr, i64 }, ptr %9, i32 0, i32 1
  %24 = load i64, ptr %23, align 8
  %25 = call noundef zeroext i1 @_ZNK5clang13OpenCLOptions23isSupportedOptionalCoreEN4llvm9StringRefERKNS_11LangOptionsE(ptr noundef nonnull align 8 dereferenceable(24) %12, ptr %22, i64 %24, ptr noundef nonnull align 8 dereferenceable(841) %20)
  br label %26

26:                                               ; preds = %19, %4
  %27 = phi i1 [ true, %4 ], [ %25, %19 ]
  ret i1 %27
}