; Function Attrs: mustprogress nounwind uwtable
define dso_local noundef zeroext i1 @_ZNK5clang13OpenCLOptions29isSupportedCoreOrOptionalCoreEN4llvm9StringRefERKNS_11LangOptionsE(ptr noundef nonnull align 8 dereferenceable(24) %0, ptr %1, i64 %2, ptr noundef nonnull align 8 dereferenceable(841) %3) local_unnamed_addr #0 align 2 {
  %5 = tail call noundef zeroext i1 @_ZNK5clang13OpenCLOptions15isSupportedCoreEN4llvm9StringRefERKNS_11LangOptionsE(ptr noundef nonnull align 8 dereferenceable(24) %0, ptr %1, i64 %2, ptr noundef nonnull align 8 dereferenceable(841) %3)
  br i1 %5, label %8, label %6

6:                                                ; preds = %4
  %7 = tail call noundef zeroext i1 @_ZNK5clang13OpenCLOptions23isSupportedOptionalCoreEN4llvm9StringRefERKNS_11LangOptionsE(ptr noundef nonnull align 8 dereferenceable(24) %0, ptr %1, i64 %2, ptr noundef nonnull align 8 dereferenceable(841) %3)
  br label %8

8:                                                ; preds = %6, %4
  %9 = phi i1 [ true, %4 ], [ %7, %6 ]
  ret i1 %9
}